; Function Attrs: nofree norecurse nosync nounwind memory(read, inaccessiblemem: none) uwtable
define i32 @Gia_ManSumCount(ptr noundef readonly captures(none) %0, ptr noundef readonly captures(none) %1, i32 noundef %2) local_unnamed_addr #9 {
  %4 = load i8, ptr %0, align 1, !tbaa !12
  %.not23 = icmp eq i8 %4, 0
  br i1 %.not23, label %._crit_edge, label %.lr.ph

.lr.ph:                                           ; preds = %3
  %5 = getelementptr i8, ptr %1, i64 8
  %.val = load ptr, ptr %5, align 8, !tbaa !44
  br label %6

6:                                                ; preds = %.lr.ph, %6
  %indvars.iv = phi i64 [ 0, %.lr.ph ], [ %indvars.iv.next, %6 ]
  %7 = phi i8 [ %4, %.lr.ph ], [ %21, %6 ]
  %.026 = phi i32 [ 0, %.lr.ph ], [ %16, %6 ]
  %.01925 = phi i32 [ 0, %.lr.ph ], [ %19, %6 ]
  %8 = add i8 %7, -48
  %or.cond = icmp ult i8 %8, 10
  %9 = zext nneg i8 %8 to i32
  %10 = sext i8 %7 to i32
  %11 = add nsw i32 %10, -55
  %12 = select i1 %or.cond, i32 %9, i32 %11
  %13 = sext i32 %12 to i64
  %14 = getelementptr inbounds i32, ptr %.val, i64 %13
  %15 = load i32, ptr %14, align 4, !tbaa !19
  %16 = add nsw i32 %12, %.026
  %17 = shl i32 %2, %16
  %18 = add i32 %17, %.01925
  %19 = add i32 %18, %15
  %indvars.iv.next = add nuw nsw i64 %indvars.iv, 1
  %20 = getelementptr inbounds nuw i8, ptr %0, i64 %indvars.iv.next
  %21 = load i8, ptr %20, align 1, !tbaa !12
  %.not = icmp eq i8 %21, 0
  br i1 %.not, label %._crit_edge, label %6, !llvm.loop !110

._crit_edge:                                      ; preds = %6, %3
  %.019.lcssa = phi i32 [ 0, %3 ], [ %19, %6 ]
  %.0.lcssa = phi i32 [ 0, %3 ], [ %16, %6 ]
  %mulshl = shl i32 %2, %.0.lcssa
  %22 = sub i32 %.019.lcssa, %2
  %23 = add i32 %22, %mulshl
  ret i32 %23
}